; Function Attrs: mustprogress nofree nounwind willreturn memory(read, inaccessiblemem: none) uwtable
define dso_local noundef i32 @_ZNK4llvm13StringMapImpl7FindKeyENS_9StringRefEj(ptr nocapture noundef nonnull readonly align 8 dereferenceable(24) %0, ptr nocapture readonly %1, i64 %2, i32 noundef %3) local_unnamed_addr #1 align 2 {
  %.fr26 = freeze i64 %2
  %5 = getelementptr inbounds nuw i8, ptr %0, i64 8
  %6 = load i32, ptr %5, align 8
  %7 = icmp eq i32 %6, 0
  br i1 %7, label %_ZN4llvmeqENS_9StringRefES0_.exit.thread, label %8

8:                                                ; preds = %4
  %9 = add i32 %6, -1
  %10 = load ptr, ptr %0, align 8
  %11 = zext i32 %6 to i64
  %12 = getelementptr inbounds ptr, ptr %10, i64 %11
  %13 = getelementptr inbounds i8, ptr %12, i64 8
  %14 = getelementptr inbounds nuw i8, ptr %0, i64 20
  %15 = load i32, ptr %14, align 4
  %16 = zext i32 %15 to i64
  %17 = icmp eq i64 %.fr26, 0
  br i1 %17, label %.split.us, label %.split

.split.us:                                        ; preds = %8, %_ZN4llvmeqENS_9StringRefES0_.exit.thread23.us
  %.020.us = phi i32 [ %28, %_ZN4llvmeqENS_9StringRefES0_.exit.thread23.us ], [ 1, %8 ]
  %.pn.us = phi i32 [ %27, %_ZN4llvmeqENS_9StringRefES0_.exit.thread23.us ], [ %3, %8 ]
  %.019.us = and i32 %.pn.us, %9
  %18 = zext i32 %.019.us to i64
  %19 = getelementptr inbounds ptr, ptr %10, i64 %18
  %20 = load ptr, ptr %19, align 8
  %magicptr.us = ptrtoint ptr %20 to i64
  switch i64 %magicptr.us, label %21 [
    i64 0, label %_ZN4llvmeqENS_9StringRefES0_.exit.thread
    i64 -8, label %_ZN4llvmeqENS_9StringRefES0_.exit.thread23.us
  ]

21:                                               ; preds = %.split.us
  %22 = getelementptr inbounds i32, ptr %13, i64 %18
  %23 = load i32, ptr %22, align 4
  %24 = icmp eq i32 %23, %3
  br i1 %24, label %25, label %_ZN4llvmeqENS_9StringRefES0_.exit.thread23.us

25:                                               ; preds = %21
  %26 = load i64, ptr %20, align 8
  %.not.i.us = icmp eq i64 %26, 0
  br i1 %.not.i.us, label %_ZN4llvmeqENS_9StringRefES0_.exit.thread, label %_ZN4llvmeqENS_9StringRefES0_.exit.thread23.us

_ZN4llvmeqENS_9StringRefES0_.exit.thread23.us:    ; preds = %25, %21, %.split.us
  %27 = add i32 %.019.us, %.020.us
  %28 = add i32 %.020.us, 1
  br label %.split.us, !llvm.loop !6

.split:                                           ; preds = %8, %_ZN4llvmeqENS_9StringRefES0_.exit.thread23
  %.020 = phi i32 [ %41, %_ZN4llvmeqENS_9StringRefES0_.exit.thread23 ], [ 1, %8 ]
  %.pn = phi i32 [ %40, %_ZN4llvmeqENS_9StringRefES0_.exit.thread23 ], [ %3, %8 ]
  %.019 = and i32 %.pn, %9
  %29 = zext i32 %.019 to i64
  %30 = getelementptr inbounds ptr, ptr %10, i64 %29
  %31 = load ptr, ptr %30, align 8
  %magicptr = ptrtoint ptr %31 to i64
  switch i64 %magicptr, label %32 [
    i64 0, label %_ZN4llvmeqENS_9StringRefES0_.exit.thread
    i64 -8, label %_ZN4llvmeqENS_9StringRefES0_.exit.thread23
  ]

32:                                               ; preds = %.split
  %33 = getelementptr inbounds i32, ptr %13, i64 %29
  %34 = load i32, ptr %33, align 4
  %35 = icmp eq i32 %34, %3
  br i1 %35, label %36, label %_ZN4llvmeqENS_9StringRefES0_.exit.thread23

36:                                               ; preds = %32
  %37 = load i64, ptr %31, align 8
  %.not.i = icmp eq i64 %.fr26, %37
  br i1 %.not.i, label %_ZN4llvmeqENS_9StringRefES0_.exit, label %_ZN4llvmeqENS_9StringRefES0_.exit.thread23

_ZN4llvmeqENS_9StringRefES0_.exit:                ; preds = %36
  %38 = getelementptr inbounds i8, ptr %31, i64 %16
  %bcmp.i = tail call i32 @bcmp(ptr %1, ptr nonnull %38, i64 %.fr26)
  %39 = icmp eq i32 %bcmp.i, 0
  br i1 %39, label %_ZN4llvmeqENS_9StringRefES0_.exit.thread, label %_ZN4llvmeqENS_9StringRefES0_.exit.thread23

_ZN4llvmeqENS_9StringRefES0_.exit.thread23:       ; preds = %.split, %36, %32, %_ZN4llvmeqENS_9StringRefES0_.exit
  %40 = add i32 %.019, %.020
  %41 = add i32 %.020, 1
  br label %.split, !llvm.loop !6

_ZN4llvmeqENS_9StringRefES0_.exit.thread:         ; preds = %_ZN4llvmeqENS_9StringRefES0_.exit, %.split, %.split.us, %25, %4
  %.0 = phi i32 [ -1, %4 ], [ %.019.us, %25 ], [ -1, %.split.us ], [ %.019, %_ZN4llvmeqENS_9StringRefES0_.exit ], [ -1, %.split ]
  ret i32 %.0
}